target datalayout = "e-m:e-p270:32:32-p271:32:32-p272:64:64-i64:64-i128:128-f80:128-n8:16:32:64-S128"
target triple = "x86_64-pc-linux-gnu"

%struct.Abc_Ntk_t_ = type { i32, i32, ptr, ptr, ptr, ptr, ptr, ptr, ptr, ptr, ptr, ptr, ptr, [11 x i32], i32, i32, i32, i32, ptr, i32, ptr, ptr, i32, i32, i32, double, i32, %struct.Vec_Int_t_, ptr, ptr, ptr, ptr, ptr, float, i32, ptr, ptr, ptr, ptr, ptr, ptr, ptr, ptr, ptr, ptr, ptr, ptr, ptr, ptr, ptr, ptr, ptr, ptr, ptr, ptr, ptr, ptr }
%struct.Vec_Int_t_ = type { i32, i32, ptr }
%struct.Abc_Obj_t_ = type { ptr, ptr, i32, i32, %struct.Vec_Int_t_, %struct.Vec_Int_t_, %union.anon, %union.anon.0 }
%union.anon = type { ptr }
%union.anon.0 = type { ptr }

; Function Attrs: inlinehint nounwind uwtable
define internal i32 @Abc_ObjFaninNum(ptr noundef %0) #6 {
  %2 = alloca ptr, align 8
  store ptr %0, ptr %2, align 8, !tbaa !43
  %3 = load ptr, ptr %2, align 8, !tbaa !43
  %4 = getelementptr inbounds nuw %struct.Abc_Obj_t_, ptr %3, i32 0, i32 4
  %5 = getelementptr inbounds nuw %struct.Vec_Int_t_, ptr %4, i32 0, i32 1
  %6 = load i32, ptr %5, align 4, !tbaa !72
  ret i32 %6
}

; Function Attrs: nounwind uwtable
define void @Abc_NodeBddToCnf(ptr noundef %0, ptr noundef %1, ptr noundef %2, i32 noundef %3, ptr noundef %4, ptr noundef %5) #0 {
  %7 = alloca ptr, align 8
  %8 = alloca ptr, align 8
  %9 = alloca ptr, align 8
  %10 = alloca i32, align 4
  %11 = alloca ptr, align 8
  %12 = alloca ptr, align 8
  store ptr %0, ptr %7, align 8, !tbaa !43
  store ptr %1, ptr %8, align 8, !tbaa !76
  store ptr %2, ptr %9, align 8, !tbaa !78
  store i32 %3, ptr %10, align 4, !tbaa !8
  store ptr %4, ptr %11, align 8, !tbaa !97
  store ptr %5, ptr %12, align 8, !tbaa !97
  %13 = load ptr, ptr %8, align 8, !tbaa !76
  %14 = load ptr, ptr %7, align 8, !tbaa !43
  %15 = getelementptr inbounds nuw %struct.Abc_Obj_t_, ptr %14, i32 0, i32 0
  %16 = load ptr, ptr %15, align 8, !tbaa !70
  %17 = getelementptr inbounds nuw %struct.Abc_Ntk_t_, ptr %16, i32 0, i32 30
  %18 = load ptr, ptr %17, align 8, !tbaa !62
  %19 = load ptr, ptr %7, align 8, !tbaa !43
  %20 = getelementptr inbounds nuw %struct.Abc_Obj_t_, ptr %19, i32 0, i32 6
  %21 = load ptr, ptr %20, align 8, !tbaa !12
  %22 = load ptr, ptr %7, align 8, !tbaa !43
  %23 = getelementptr inbounds nuw %struct.Abc_Obj_t_, ptr %22, i32 0, i32 6
  %24 = load ptr, ptr %23, align 8, !tbaa !12
  %25 = load ptr, ptr %7, align 8, !tbaa !43
  %26 = call i32 @Abc_ObjFaninNum(ptr noundef %25)
  %27 = load i32, ptr %10, align 4, !tbaa !8
  %28 = load ptr, ptr %9, align 8, !tbaa !78
  %29 = call ptr @Abc_ConvertBddToSop(ptr noundef %13, ptr noundef %18, ptr noundef %21, ptr noundef %24, i32 noundef %26, i32 noundef %27, ptr noundef %28, i32 noundef 0)
  %30 = load ptr, ptr %11, align 8, !tbaa !97
  store ptr %29, ptr %30, align 8, !tbaa !3
  %31 = load ptr, ptr %8, align 8, !tbaa !76
  %32 = load ptr, ptr %7, align 8, !tbaa !43
  %33 = getelementptr inbounds nuw %struct.Abc_Obj_t_, ptr %32, i32 0, i32 0
  %34 = load ptr, ptr %33, align 8, !tbaa !70
  %35 = getelementptr inbounds nuw %struct.Abc_Ntk_t_, ptr %34, i32 0, i32 30
  %36 = load ptr, ptr %35, align 8, !tbaa !62
  %37 = load ptr, ptr %7, align 8, !tbaa !43
  %38 = getelementptr inbounds nuw %struct.Abc_Obj_t_, ptr %37, i32 0, i32 6
  %39 = load ptr, ptr %38, align 8, !tbaa !12
  %40 = load ptr, ptr %7, align 8, !tbaa !43
  %41 = getelementptr inbounds nuw %struct.Abc_Obj_t_, ptr %40, i32 0, i32 6
  %42 = load ptr, ptr %41, align 8, !tbaa !12
  %43 = load ptr, ptr %7, align 8, !tbaa !43
  %44 = call i32 @Abc_ObjFaninNum(ptr noundef %43)
  %45 = load i32, ptr %10, align 4, !tbaa !8
  %46 = load ptr, ptr %9, align 8, !tbaa !78
  %47 = call ptr @Abc_ConvertBddToSop(ptr noundef %31, ptr noundef %36, ptr noundef %39, ptr noundef %42, i32 noundef %44, i32 noundef %45, ptr noundef %46, i32 noundef 1)
  %48 = load ptr, ptr %12, align 8, !tbaa !97
  store ptr %47, ptr %48, align 8, !tbaa !3
  ret void
}