; Function Attrs: nounwind uwtable
define void @Abc_NodeBddToCnf(ptr noundef readonly captures(none) %0, ptr noundef %1, ptr noundef %2, i32 noundef %3, ptr noundef writeonly captures(none) initializes((0, 8)) %4, ptr noundef writeonly captures(none) initializes((0, 8)) %5) local_unnamed_addr #2 {
  %7 = load ptr, ptr %0, align 8, !tbaa !43
  %8 = getelementptr inbounds nuw i8, ptr %7, i64 256
  %9 = load ptr, ptr %8, align 8, !tbaa !65
  %10 = getelementptr inbounds nuw i8, ptr %0, i64 56
  %11 = load ptr, ptr %10, align 8, !tbaa !3
  %12 = getelementptr i8, ptr %0, i64 28
  %.val15 = load i32, ptr %12, align 4, !tbaa !47
  %13 = tail call ptr @Abc_ConvertBddToSop(ptr noundef %1, ptr noundef %9, ptr noundef %11, ptr noundef %11, i32 noundef %.val15, i32 noundef %3, ptr noundef %2, i32 noundef 0)
  store ptr %13, ptr %4, align 8, !tbaa !82
  %14 = load ptr, ptr %0, align 8, !tbaa !43
  %15 = getelementptr inbounds nuw i8, ptr %14, i64 256
  %16 = load ptr, ptr %15, align 8, !tbaa !65
  %17 = load ptr, ptr %10, align 8, !tbaa !3
  %.val = load i32, ptr %12, align 4, !tbaa !47
  %18 = tail call ptr @Abc_ConvertBddToSop(ptr noundef %1, ptr noundef %16, ptr noundef %17, ptr noundef %17, i32 noundef %.val, i32 noundef %3, ptr noundef %2, i32 noundef 1)
  store ptr %18, ptr %5, align 8, !tbaa !82
  ret void
}